target datalayout = "e-m:e-p270:32:32-p271:32:32-p272:64:64-i64:64-i128:128-f80:128-n8:16:32:64-S128"
target triple = "x86_64-pc-linux-gnu"

%struct.wl_list = type { ptr, ptr }
%struct.SDL_WaylandPenTool = type { i32, %struct.SDL_PenInfo, ptr, ptr, float, float, i8, [7 x float], i32, i32, [3 x i32], %struct.wl_list }
%struct.SDL_PenInfo = type { i32, float, i32, i32, i32 }

; Function Attrs: nounwind uwtable
define internal void @tablet_tool_handle_distance(ptr noundef %0, ptr noundef %1, i32 noundef %2) #0 {
  %4 = alloca ptr, align 8
  %5 = alloca ptr, align 8
  %6 = alloca i32, align 4
  %7 = alloca ptr, align 8
  store ptr %0, ptr %4, align 8
  store ptr %1, ptr %5, align 8
  store i32 %2, ptr %6, align 4
  call void @llvm.lifetime.start.p0(i64 8, ptr %7) #10
  %8 = load ptr, ptr %4, align 8
  store ptr %8, ptr %7, align 8
  %9 = load i32, ptr %6, align 4
  %10 = uitofp i32 %9 to float
  %11 = fdiv float %10, 6.553500e+04
  %12 = load ptr, ptr %7, align 8
  %13 = getelementptr inbounds nuw %struct.SDL_WaylandPenTool, ptr %12, i32 0, i32 7
  %14 = getelementptr inbounds [7 x float], ptr %13, i64 0, i64 3
  store float %11, ptr %14, align 4
  %15 = load ptr, ptr %7, align 8
  %16 = getelementptr inbounds nuw %struct.SDL_WaylandPenTool, ptr %15, i32 0, i32 8
  %17 = load i32, ptr %16, align 8
  %18 = or i32 %17, 8
  store i32 %18, ptr %16, align 8
  %19 = load i32, ptr %6, align 4
  %20 = icmp ne i32 %19, 0
  br i1 %20, label %21, label %29

21:                                               ; preds = %3
  %22 = load ptr, ptr %7, align 8
  %23 = getelementptr inbounds nuw %struct.SDL_WaylandPenTool, ptr %22, i32 0, i32 7
  %24 = getelementptr inbounds [7 x float], ptr %23, i64 0, i64 0
  store float 0.000000e+00, ptr %24, align 4
  %25 = load ptr, ptr %7, align 8
  %26 = getelementptr inbounds nuw %struct.SDL_WaylandPenTool, ptr %25, i32 0, i32 8
  %27 = load i32, ptr %26, align 8
  %28 = or i32 %27, 1
  store i32 %28, ptr %26, align 8
  br label %29

29:                                               ; preds = %21, %3
  call void @llvm.lifetime.end.p0(i64 8, ptr %7) #10
  ret void
}