; Function Attrs: mustprogress nofree norecurse nosync nounwind willreturn memory(argmem: readwrite) uwtable
define internal void @tablet_tool_handle_distance(ptr noundef captures(none) initializes((64, 68)) %0, ptr readnone captures(none) %1, i32 noundef %2) #8 {
  %4 = uitofp i32 %2 to float
  %5 = fdiv float %4, 6.553500e+04
  %6 = getelementptr inbounds nuw i8, ptr %0, i64 64
  store float %5, ptr %6, align 4
  %7 = getelementptr inbounds nuw i8, ptr %0, i64 80
  %8 = load i32, ptr %7, align 8
  %9 = or i32 %8, 8
  store i32 %9, ptr %7, align 8
  %.not = icmp eq i32 %2, 0
  br i1 %.not, label %13, label %10

10:                                               ; preds = %3
  %11 = getelementptr inbounds nuw i8, ptr %0, i64 52
  store float 0.000000e+00, ptr %11, align 4
  %12 = or i32 %8, 9
  store i32 %12, ptr %7, align 8
  br label %13

13:                                               ; preds = %10, %3
  ret void
}